target datalayout = "e-m:e-p270:32:32-p271:32:32-p272:64:64-i64:64-i128:128-f80:128-n8:16:32:64-S128"
target triple = "x86_64-pc-linux-gnu"

%struct.lean_object = type { i32, i32 }
%struct.lean_closure_object = type { %struct.lean_object, ptr, i16, i16, [0 x ptr] }

; Function Attrs: inlinehint nounwind uwtable
define internal i64 @lean_align(i64 noundef %0, i64 noundef %1) #0 {
  %3 = alloca i64, align 8
  %4 = alloca i64, align 8
  store i64 %0, ptr %3, align 8, !tbaa !4
  store i64 %1, ptr %4, align 8, !tbaa !4
  %5 = load i64, ptr %3, align 8, !tbaa !4
  %6 = load i64, ptr %4, align 8, !tbaa !4
  %7 = udiv i64 %5, %6
  %8 = load i64, ptr %4, align 8, !tbaa !4
  %9 = mul i64 %7, %8
  %10 = load i64, ptr %4, align 8, !tbaa !4
  %11 = load i64, ptr %3, align 8, !tbaa !4
  %12 = load i64, ptr %4, align 8, !tbaa !4
  %13 = urem i64 %11, %12
  %14 = icmp ne i64 %13, 0
  %15 = zext i1 %14 to i32
  %16 = sext i32 %15 to i64
  %17 = mul i64 %10, %16
  %18 = add i64 %9, %17
  ret i64 %18
}

; Function Attrs: inlinehint nounwind uwtable
define internal zeroext i1 @lean_is_st(ptr noundef %0) #0 {
  %2 = alloca ptr, align 8
  store ptr %0, ptr %2, align 8, !tbaa !8
  %3 = load ptr, ptr %2, align 8, !tbaa !8
  %4 = getelementptr inbounds nuw %struct.lean_object, ptr %3, i32 0, i32 0
  %5 = load i32, ptr %4, align 4, !tbaa !17
  %6 = icmp sgt i32 %5, 0
  ret i1 %6
}

; Function Attrs: inlinehint nounwind uwtable
define internal ptr @lean_to_closure(ptr noundef %0) #0 {
  %2 = alloca ptr, align 8
  store ptr %0, ptr %2, align 8, !tbaa !8
  %3 = load ptr, ptr %2, align 8, !tbaa !8
  ret ptr %3
}

; Function Attrs: inlinehint nounwind uwtable
define internal void @lean_set_st_header(ptr noundef %0, i32 noundef %1, i32 noundef %2) #0 {
  %4 = alloca ptr, align 8
  %5 = alloca i32, align 4
  %6 = alloca i32, align 4
  store ptr %0, ptr %4, align 8, !tbaa !8
  store i32 %1, ptr %5, align 4, !tbaa !13
  store i32 %2, ptr %6, align 4, !tbaa !13
  %7 = load ptr, ptr %4, align 8, !tbaa !8
  %8 = getelementptr inbounds nuw %struct.lean_object, ptr %7, i32 0, i32 0
  store i32 1, ptr %8, align 4, !tbaa !17
  %9 = load i32, ptr %5, align 4, !tbaa !13
  %10 = load ptr, ptr %4, align 8, !tbaa !8
  %11 = getelementptr inbounds nuw %struct.lean_object, ptr %10, i32 0, i32 1
  %12 = load i32, ptr %11, align 4
  %13 = and i32 %9, 255
  %14 = shl i32 %13, 24
  %15 = and i32 %12, 16777215
  %16 = or i32 %15, %14
  store i32 %16, ptr %11, align 4
  %17 = load i32, ptr %6, align 4, !tbaa !13
  %18 = load ptr, ptr %4, align 8, !tbaa !8
  %19 = getelementptr inbounds nuw %struct.lean_object, ptr %18, i32 0, i32 1
  %20 = load i32, ptr %19, align 4
  %21 = and i32 %17, 255
  %22 = shl i32 %21, 16
  %23 = and i32 %20, -16711681
  %24 = or i32 %23, %22
  store i32 %24, ptr %19, align 4
  ret void
}

; Function Attrs: inlinehint nounwind uwtable
define internal ptr @lean_alloc_small_object(i32 noundef %0) #0 {
  %2 = alloca i32, align 4
  %3 = alloca ptr, align 8
  %4 = alloca ptr, align 8
  store i32 %0, ptr %2, align 4, !tbaa !13
  call void @lean_inc_heartbeat()
  %5 = load i32, ptr %2, align 4, !tbaa !13
  %6 = zext i32 %5 to i64
  %7 = call i64 @lean_align(i64 noundef %6, i64 noundef 8)
  %8 = trunc i64 %7 to i32
  store i32 %8, ptr %2, align 4, !tbaa !13
  call void @llvm.lifetime.start.p0(i64 8, ptr %3) #7
  %9 = load i32, ptr %2, align 4, !tbaa !13
  %10 = zext i32 %9 to i64
  %11 = call noalias ptr @mi_malloc_small(i64 noundef %10)
  store ptr %11, ptr %3, align 8, !tbaa !8
  %12 = load ptr, ptr %3, align 8, !tbaa !8
  %13 = icmp eq ptr %12, null
  br i1 %13, label %14, label %15

14:                                               ; preds = %1
  call void @lean_internal_panic_out_of_memory() #8
  unreachable

15:                                               ; preds = %1
  call void @llvm.lifetime.start.p0(i64 8, ptr %4) #7
  %16 = load ptr, ptr %3, align 8, !tbaa !8
  store ptr %16, ptr %4, align 8, !tbaa !8
  %17 = load i32, ptr %2, align 4, !tbaa !13
  %18 = load ptr, ptr %4, align 8, !tbaa !8
  %19 = getelementptr inbounds nuw %struct.lean_object, ptr %18, i32 0, i32 1
  %20 = load i32, ptr %19, align 4
  %21 = and i32 %17, 65535
  %22 = and i32 %20, -65536
  %23 = or i32 %22, %21
  store i32 %23, ptr %19, align 4
  %24 = load ptr, ptr %4, align 8, !tbaa !8
  call void @llvm.lifetime.end.p0(i64 8, ptr %4) #7
  call void @llvm.lifetime.end.p0(i64 8, ptr %3) #7
  ret ptr %24
}

; Function Attrs: inlinehint nounwind uwtable
define internal void @lean_inc_ref(ptr noundef %0) #0 {
  %2 = alloca ptr, align 8
  store ptr %0, ptr %2, align 8, !tbaa !8
  %3 = load ptr, ptr %2, align 8, !tbaa !8
  %4 = call zeroext i1 @lean_is_st(ptr noundef %3)
  %5 = zext i1 %4 to i64
  %6 = call i64 @llvm.expect.i64(i64 %5, i64 1)
  %7 = icmp ne i64 %6, 0
  br i1 %7, label %8, label %13

8:                                                ; preds = %1
  %9 = load ptr, ptr %2, align 8, !tbaa !8
  %10 = getelementptr inbounds nuw %struct.lean_object, ptr %9, i32 0, i32 0
  %11 = load i32, ptr %10, align 4, !tbaa !17
  %12 = add i32 %11, 1
  store i32 %12, ptr %10, align 4, !tbaa !17
  br label %21

13:                                               ; preds = %1
  %14 = load ptr, ptr %2, align 8, !tbaa !8
  %15 = getelementptr inbounds nuw %struct.lean_object, ptr %14, i32 0, i32 0
  %16 = load i32, ptr %15, align 4, !tbaa !17
  %17 = icmp ne i32 %16, 0
  br i1 %17, label %18, label %20

18:                                               ; preds = %13
  %19 = load ptr, ptr %2, align 8, !tbaa !8
  call void @lean_inc_ref_cold(ptr noundef %19)
  br label %20

20:                                               ; preds = %18, %13
  br label %21

21:                                               ; preds = %20, %8
  ret void
}

; Function Attrs: alwaysinline nounwind uwtable
define internal zeroext i1 @lean_is_scalar(ptr noundef %0) #1 {
  %2 = alloca ptr, align 8
  store ptr %0, ptr %2, align 8, !tbaa !8
  %3 = load ptr, ptr %2, align 8, !tbaa !8
  %4 = ptrtoint ptr %3 to i64
  %5 = and i64 %4, 1
  %6 = icmp eq i64 %5, 1
  ret i1 %6
}

; Function Attrs: nounwind uwtable
define ptr @l_Lean_Meta_IndPredBelow_mkCtorType_mkMotiveBinder(ptr noundef %0, ptr noundef %1, ptr noundef %2, ptr noundef %3, ptr noundef %4, ptr noundef %5, ptr noundef %6, ptr noundef %7, ptr noundef %8, ptr noundef %9, ptr noundef %10, ptr noundef %11) #2 {
  %13 = alloca ptr, align 8
  %14 = alloca ptr, align 8
  %15 = alloca ptr, align 8
  %16 = alloca ptr, align 8
  %17 = alloca ptr, align 8
  %18 = alloca ptr, align 8
  %19 = alloca ptr, align 8
  %20 = alloca ptr, align 8
  %21 = alloca ptr, align 8
  %22 = alloca ptr, align 8
  %23 = alloca ptr, align 8
  %24 = alloca ptr, align 8
  %25 = alloca ptr, align 8
  %26 = alloca i8, align 1
  %27 = alloca ptr, align 8
  store ptr %0, ptr %13, align 8, !tbaa !8
  store ptr %1, ptr %14, align 8, !tbaa !8
  store ptr %2, ptr %15, align 8, !tbaa !8
  store ptr %3, ptr %16, align 8, !tbaa !8
  store ptr %4, ptr %17, align 8, !tbaa !8
  store ptr %5, ptr %18, align 8, !tbaa !8
  store ptr %6, ptr %19, align 8, !tbaa !8
  store ptr %7, ptr %20, align 8, !tbaa !8
  store ptr %8, ptr %21, align 8, !tbaa !8
  store ptr %9, ptr %22, align 8, !tbaa !8
  store ptr %10, ptr %23, align 8, !tbaa !8
  store ptr %11, ptr %24, align 8, !tbaa !8
  br label %28

28:                                               ; preds = %12
  call void @llvm.lifetime.start.p0(i64 8, ptr %25) #7
  call void @llvm.lifetime.start.p0(i64 1, ptr %26) #7
  call void @llvm.lifetime.start.p0(i64 8, ptr %27) #7
  %29 = call ptr @lean_alloc_closure(ptr noundef @l_Lean_Meta_IndPredBelow_mkCtorType_mkMotiveBinder___lambda__1___boxed, i32 noundef 12, i32 noundef 5)
  store ptr %29, ptr %25, align 8, !tbaa !8
  %30 = load ptr, ptr %25, align 8, !tbaa !8
  %31 = load ptr, ptr %13, align 8, !tbaa !8
  call void @lean_closure_set(ptr noundef %30, i32 noundef 0, ptr noundef %31)
  %32 = load ptr, ptr %25, align 8, !tbaa !8
  %33 = load ptr, ptr %14, align 8, !tbaa !8
  call void @lean_closure_set(ptr noundef %32, i32 noundef 1, ptr noundef %33)
  %34 = load ptr, ptr %25, align 8, !tbaa !8
  %35 = load ptr, ptr %15, align 8, !tbaa !8
  call void @lean_closure_set(ptr noundef %34, i32 noundef 2, ptr noundef %35)
  %36 = load ptr, ptr %25, align 8, !tbaa !8
  %37 = load ptr, ptr %16, align 8, !tbaa !8
  call void @lean_closure_set(ptr noundef %36, i32 noundef 3, ptr noundef %37)
  %38 = load ptr, ptr %25, align 8, !tbaa !8
  %39 = load ptr, ptr %19, align 8, !tbaa !8
  call void @lean_closure_set(ptr noundef %38, i32 noundef 4, ptr noundef %39)
  store i8 0, ptr %26, align 1, !tbaa !12
  %40 = load ptr, ptr %17, align 8, !tbaa !8
  %41 = load ptr, ptr %25, align 8, !tbaa !8
  %42 = load i8, ptr %26, align 1, !tbaa !12
  %43 = load ptr, ptr %20, align 8, !tbaa !8
  %44 = load ptr, ptr %21, align 8, !tbaa !8
  %45 = load ptr, ptr %22, align 8, !tbaa !8
  %46 = load ptr, ptr %23, align 8, !tbaa !8
  %47 = load ptr, ptr %24, align 8, !tbaa !8
  %48 = call ptr @l_Lean_Meta_forallTelescopeReducing___at_Lean_Meta_getParamNames___spec__2___rarg(ptr noundef %40, ptr noundef %41, i8 noundef zeroext %42, ptr noundef %43, ptr noundef %44, ptr noundef %45, ptr noundef %46, ptr noundef %47)
  store ptr %48, ptr %27, align 8, !tbaa !8
  %49 = load ptr, ptr %27, align 8, !tbaa !8
  call void @llvm.lifetime.end.p0(i64 8, ptr %27) #7
  call void @llvm.lifetime.end.p0(i64 1, ptr %26) #7
  call void @llvm.lifetime.end.p0(i64 8, ptr %25) #7
  ret ptr %49
}

; Function Attrs: inlinehint nounwind uwtable
define internal ptr @lean_box(i64 noundef %0) #0 {
  %2 = alloca i64, align 8
  store i64 %0, ptr %2, align 8, !tbaa !4
  %3 = load i64, ptr %2, align 8, !tbaa !4
  %4 = shl i64 %3, 1
  %5 = or i64 %4, 1
  %6 = inttoptr i64 %5 to ptr
  ret ptr %6
}

; Function Attrs: inlinehint nounwind uwtable
define internal void @lean_closure_set(ptr noundef %0, i32 noundef %1, ptr noundef %2) #0 {
  %4 = alloca ptr, align 8
  %5 = alloca i32, align 4
  %6 = alloca ptr, align 8
  store ptr %0, ptr %4, align 8, !tbaa !8
  store i32 %1, ptr %5, align 4, !tbaa !13
  store ptr %2, ptr %6, align 8, !tbaa !8
  %7 = load ptr, ptr %6, align 8, !tbaa !8
  %8 = load ptr, ptr %4, align 8, !tbaa !8
  %9 = call ptr @lean_to_closure(ptr noundef %8)
  %10 = getelementptr inbounds nuw %struct.lean_closure_object, ptr %9, i32 0, i32 4
  %11 = load i32, ptr %5, align 4, !tbaa !13
  %12 = zext i32 %11 to i64
  %13 = getelementptr inbounds nuw [0 x ptr], ptr %10, i64 0, i64 %12
  store ptr %7, ptr %13, align 8, !tbaa !8
  ret void
}

; Function Attrs: inlinehint nounwind uwtable
define internal ptr @lean_alloc_closure(ptr noundef %0, i32 noundef %1, i32 noundef %2) #0 {
  %4 = alloca ptr, align 8
  %5 = alloca i32, align 4
  %6 = alloca i32, align 4
  %7 = alloca ptr, align 8
  store ptr %0, ptr %4, align 8, !tbaa !8
  store i32 %1, ptr %5, align 4, !tbaa !13
  store i32 %2, ptr %6, align 4, !tbaa !13
  call void @llvm.lifetime.start.p0(i64 8, ptr %7) #7
  %8 = load i32, ptr %6, align 4, !tbaa !13
  %9 = zext i32 %8 to i64
  %10 = mul i64 8, %9
  %11 = add i64 24, %10
  %12 = trunc i64 %11 to i32
  %13 = call ptr @lean_alloc_small_object(i32 noundef %12)
  store ptr %13, ptr %7, align 8, !tbaa !8
  %14 = load ptr, ptr %7, align 8, !tbaa !8
  call void @lean_set_st_header(ptr noundef %14, i32 noundef 245, i32 noundef 0)
  %15 = load ptr, ptr %4, align 8, !tbaa !8
  %16 = load ptr, ptr %7, align 8, !tbaa !8
  %17 = getelementptr inbounds nuw %struct.lean_closure_object, ptr %16, i32 0, i32 1
  store ptr %15, ptr %17, align 8, !tbaa !8
  %18 = load i32, ptr %5, align 4, !tbaa !13
  %19 = trunc i32 %18 to i16
  %20 = load ptr, ptr %7, align 8, !tbaa !8
  %21 = getelementptr inbounds nuw %struct.lean_closure_object, ptr %20, i32 0, i32 2
  store i16 %19, ptr %21, align 8, !tbaa !15
  %22 = load i32, ptr %6, align 4, !tbaa !13
  %23 = trunc i32 %22 to i16
  %24 = load ptr, ptr %7, align 8, !tbaa !8
  %25 = getelementptr inbounds nuw %struct.lean_closure_object, ptr %24, i32 0, i32 3
  store i16 %23, ptr %25, align 2, !tbaa !15
  %26 = load ptr, ptr %7, align 8, !tbaa !8
  call void @llvm.lifetime.end.p0(i64 8, ptr %7) #7
  ret ptr %26
}

; Function Attrs: alwaysinline nounwind uwtable
define internal void @lean_inc(ptr noundef %0) #1 {
  %2 = alloca ptr, align 8
  store ptr %0, ptr %2, align 8, !tbaa !8
  %3 = load ptr, ptr %2, align 8, !tbaa !8
  %4 = call zeroext i1 @lean_is_scalar(ptr noundef %3)
  br i1 %4, label %7, label %5

5:                                                ; preds = %1
  %6 = load ptr, ptr %2, align 8, !tbaa !8
  call void @lean_inc_ref(ptr noundef %6)
  br label %7

7:                                                ; preds = %5, %1
  ret void
}

; Function Attrs: nounwind uwtable
define ptr @l_Lean_Meta_IndPredBelow_mkCtorType_modifyBinders___lambda__2(ptr noundef %0, ptr noundef %1, ptr noundef %2, ptr noundef %3, ptr noundef %4, ptr noundef %5, ptr noundef %6, ptr noundef %7, ptr noundef %8, ptr noundef %9, ptr noundef %10, ptr noundef %11, ptr noundef %12, ptr noundef %13, ptr noundef %14, ptr noundef %15, ptr noundef %16, ptr noundef %17, ptr noundef %18, ptr noundef %19) #2 {
  %21 = alloca ptr, align 8
  %22 = alloca ptr, align 8
  %23 = alloca ptr, align 8
  %24 = alloca ptr, align 8
  %25 = alloca ptr, align 8
  %26 = alloca ptr, align 8
  %27 = alloca ptr, align 8
  %28 = alloca ptr, align 8
  %29 = alloca ptr, align 8
  %30 = alloca ptr, align 8
  %31 = alloca ptr, align 8
  %32 = alloca ptr, align 8
  %33 = alloca ptr, align 8
  %34 = alloca ptr, align 8
  %35 = alloca ptr, align 8
  %36 = alloca ptr, align 8
  %37 = alloca ptr, align 8
  %38 = alloca ptr, align 8
  %39 = alloca ptr, align 8
  %40 = alloca ptr, align 8
  %41 = alloca ptr, align 8
  %42 = alloca ptr, align 8
  store ptr %0, ptr %21, align 8, !tbaa !8
  store ptr %1, ptr %22, align 8, !tbaa !8
  store ptr %2, ptr %23, align 8, !tbaa !8
  store ptr %3, ptr %24, align 8, !tbaa !8
  store ptr %4, ptr %25, align 8, !tbaa !8
  store ptr %5, ptr %26, align 8, !tbaa !8
  store ptr %6, ptr %27, align 8, !tbaa !8
  store ptr %7, ptr %28, align 8, !tbaa !8
  store ptr %8, ptr %29, align 8, !tbaa !8
  store ptr %9, ptr %30, align 8, !tbaa !8
  store ptr %10, ptr %31, align 8, !tbaa !8
  store ptr %11, ptr %32, align 8, !tbaa !8
  store ptr %12, ptr %33, align 8, !tbaa !8
  store ptr %13, ptr %34, align 8, !tbaa !8
  store ptr %14, ptr %35, align 8, !tbaa !8
  store ptr %15, ptr %36, align 8, !tbaa !8
  store ptr %16, ptr %37, align 8, !tbaa !8
  store ptr %17, ptr %38, align 8, !tbaa !8
  store ptr %18, ptr %39, align 8, !tbaa !8
  store ptr %19, ptr %40, align 8, !tbaa !8
  br label %43

43:                                               ; preds = %20
  call void @llvm.lifetime.start.p0(i64 8, ptr %41) #7
  call void @llvm.lifetime.start.p0(i64 8, ptr %42) #7
  %44 = load ptr, ptr %29, align 8, !tbaa !8
  call void @lean_inc(ptr noundef %44)
  %45 = load ptr, ptr %21, align 8, !tbaa !8
  call void @lean_inc(ptr noundef %45)
  %46 = call ptr @lean_alloc_closure(ptr noundef @l_Lean_Meta_IndPredBelow_mkCtorType_modifyBinders___lambda__1___boxed, i32 noundef 18, i32 noundef 12)
  store ptr %46, ptr %41, align 8, !tbaa !8
  %47 = load ptr, ptr %41, align 8, !tbaa !8
  %48 = load ptr, ptr %21, align 8, !tbaa !8
  call void @lean_closure_set(ptr noundef %47, i32 noundef 0, ptr noundef %48)
  %49 = load ptr, ptr %41, align 8, !tbaa !8
  %50 = load ptr, ptr %35, align 8, !tbaa !8
  call void @lean_closure_set(ptr noundef %49, i32 noundef 1, ptr noundef %50)
  %51 = load ptr, ptr %41, align 8, !tbaa !8
  %52 = load ptr, ptr %22, align 8, !tbaa !8
  call void @lean_closure_set(ptr noundef %51, i32 noundef 2, ptr noundef %52)
  %53 = load ptr, ptr %41, align 8, !tbaa !8
  %54 = load ptr, ptr %23, align 8, !tbaa !8
  call void @lean_closure_set(ptr noundef %53, i32 noundef 3, ptr noundef %54)
  %55 = load ptr, ptr %41, align 8, !tbaa !8
  %56 = load ptr, ptr %24, align 8, !tbaa !8
  call void @lean_closure_set(ptr noundef %55, i32 noundef 4, ptr noundef %56)
  %57 = load ptr, ptr %41, align 8, !tbaa !8
  %58 = load ptr, ptr %25, align 8, !tbaa !8
  call void @lean_closure_set(ptr noundef %57, i32 noundef 5, ptr noundef %58)
  %59 = load ptr, ptr %41, align 8, !tbaa !8
  %60 = load ptr, ptr %26, align 8, !tbaa !8
  call void @lean_closure_set(ptr noundef %59, i32 noundef 6, ptr noundef %60)
  %61 = load ptr, ptr %41, align 8, !tbaa !8
  %62 = load ptr, ptr %27, align 8, !tbaa !8
  call void @lean_closure_set(ptr noundef %61, i32 noundef 7, ptr noundef %62)
  %63 = load ptr, ptr %41, align 8, !tbaa !8
  %64 = load ptr, ptr %28, align 8, !tbaa !8
  call void @lean_closure_set(ptr noundef %63, i32 noundef 8, ptr noundef %64)
  %65 = load ptr, ptr %41, align 8, !tbaa !8
  %66 = load ptr, ptr %29, align 8, !tbaa !8
  call void @lean_closure_set(ptr noundef %65, i32 noundef 9, ptr noundef %66)
  %67 = load ptr, ptr %41, align 8, !tbaa !8
  %68 = load ptr, ptr %30, align 8, !tbaa !8
  call void @lean_closure_set(ptr noundef %67, i32 noundef 10, ptr noundef %68)
  %69 = load ptr, ptr %41, align 8, !tbaa !8
  %70 = load ptr, ptr %31, align 8, !tbaa !8
  call void @lean_closure_set(ptr noundef %69, i32 noundef 11, ptr noundef %70)
  %71 = load ptr, ptr %29, align 8, !tbaa !8
  %72 = load ptr, ptr %32, align 8, !tbaa !8
  %73 = load ptr, ptr %34, align 8, !tbaa !8
  %74 = load ptr, ptr %21, align 8, !tbaa !8
  %75 = load ptr, ptr %33, align 8, !tbaa !8
  %76 = call ptr @lean_box(i64 noundef 0)
  %77 = load ptr, ptr %41, align 8, !tbaa !8
  %78 = load ptr, ptr %36, align 8, !tbaa !8
  %79 = load ptr, ptr %37, align 8, !tbaa !8
  %80 = load ptr, ptr %38, align 8, !tbaa !8
  %81 = load ptr, ptr %39, align 8, !tbaa !8
  %82 = load ptr, ptr %40, align 8, !tbaa !8
  %83 = call ptr @l_Lean_Meta_IndPredBelow_mkCtorType_mkMotiveBinder(ptr noundef %71, ptr noundef %72, ptr noundef %73, ptr noundef %74, ptr noundef %75, ptr noundef %76, ptr noundef %77, ptr noundef %78, ptr noundef %79, ptr noundef %80, ptr noundef %81, ptr noundef %82)
  store ptr %83, ptr %42, align 8, !tbaa !8
  %84 = load ptr, ptr %42, align 8, !tbaa !8
  call void @llvm.lifetime.end.p0(i64 8, ptr %42) #7
  call void @llvm.lifetime.end.p0(i64 8, ptr %41) #7
  ret ptr %84
}