; Function Attrs: nounwind uwtable
define ptr @l_Lean_Meta_IndPredBelow_mkCtorType_modifyBinders___lambda__2(ptr noundef %0, ptr noundef %1, ptr noundef %2, ptr noundef %3, ptr noundef %4, ptr noundef %5, ptr noundef %6, ptr noundef %7, ptr noundef %8, ptr noundef %9, ptr noundef %10, ptr noundef %11, ptr noundef %12, ptr noundef %13, ptr noundef %14, ptr noundef %15, ptr noundef %16, ptr noundef %17, ptr noundef %18, ptr noundef %19) local_unnamed_addr #0 {
  %21 = ptrtoint ptr %8 to i64
  %22 = and i64 %21, 1
  %.not = icmp eq i64 %22, 0
  br i1 %.not, label %23, label %lean_inc.exit38

23:                                               ; preds = %20
  %.val.i = load i32, ptr %8, align 4, !tbaa !12
  %24 = icmp sgt i32 %.val.i, 0
  br i1 %24, label %25, label %27, !prof !11

25:                                               ; preds = %23
  %26 = add nuw i32 %.val.i, 1
  store i32 %26, ptr %8, align 4, !tbaa !12
  br label %lean_inc.exit38

27:                                               ; preds = %23
  %.not.i = icmp eq i32 %.val.i, 0
  br i1 %.not.i, label %lean_inc.exit38, label %28

28:                                               ; preds = %27
  tail call void @lean_inc_ref_cold(ptr noundef nonnull %8) #6
  br label %lean_inc.exit38

lean_inc.exit38:                                  ; preds = %28, %27, %25, %20
  %29 = ptrtoint ptr %0 to i64
  %30 = and i64 %29, 1
  %.not42 = icmp eq i64 %30, 0
  br i1 %.not42, label %31, label %lean_inc.exit

31:                                               ; preds = %lean_inc.exit38
  %.val.i39 = load i32, ptr %0, align 4, !tbaa !12
  %32 = icmp sgt i32 %.val.i39, 0
  br i1 %32, label %33, label %35, !prof !11

33:                                               ; preds = %31
  %34 = add nuw i32 %.val.i39, 1
  store i32 %34, ptr %0, align 4, !tbaa !12
  br label %lean_inc.exit

35:                                               ; preds = %31
  %.not.i40 = icmp eq i32 %.val.i39, 0
  br i1 %.not.i40, label %lean_inc.exit, label %36

36:                                               ; preds = %35
  tail call void @lean_inc_ref_cold(ptr noundef nonnull %0) #6
  br label %lean_inc.exit

lean_inc.exit:                                    ; preds = %36, %35, %33, %lean_inc.exit38
  tail call void @lean_inc_heartbeat() #6
  %37 = tail call noalias ptr @mi_malloc_small(i64 noundef 120) #6
  %38 = icmp eq ptr %37, null
  br i1 %38, label %39, label %lean_alloc_closure.exit

39:                                               ; preds = %lean_inc.exit
  tail call void @lean_internal_panic_out_of_memory() #7
  unreachable

lean_alloc_closure.exit:                          ; preds = %lean_inc.exit
  %40 = getelementptr inbounds nuw i8, ptr %37, i64 4
  store i32 1, ptr %37, align 4, !tbaa !12
  store i32 -184549256, ptr %40, align 4
  %41 = getelementptr inbounds nuw i8, ptr %37, i64 8
  store ptr @l_Lean_Meta_IndPredBelow_mkCtorType_modifyBinders___lambda__1___boxed, ptr %41, align 8, !tbaa !4
  %42 = getelementptr inbounds nuw i8, ptr %37, i64 16
  store i16 18, ptr %42, align 8, !tbaa !15
  %43 = getelementptr inbounds nuw i8, ptr %37, i64 18
  store i16 12, ptr %43, align 2, !tbaa !15
  %44 = getelementptr inbounds nuw i8, ptr %37, i64 24
  store ptr %0, ptr %44, align 8, !tbaa !4
  %45 = getelementptr inbounds nuw i8, ptr %37, i64 32
  store ptr %14, ptr %45, align 8, !tbaa !4
  %46 = getelementptr inbounds nuw i8, ptr %37, i64 40
  store ptr %1, ptr %46, align 8, !tbaa !4
  %47 = getelementptr inbounds nuw i8, ptr %37, i64 48
  store ptr %2, ptr %47, align 8, !tbaa !4
  %48 = getelementptr inbounds nuw i8, ptr %37, i64 56
  store ptr %3, ptr %48, align 8, !tbaa !4
  %49 = getelementptr inbounds nuw i8, ptr %37, i64 64
  store ptr %4, ptr %49, align 8, !tbaa !4
  %50 = getelementptr inbounds nuw i8, ptr %37, i64 72
  store ptr %5, ptr %50, align 8, !tbaa !4
  %51 = getelementptr inbounds nuw i8, ptr %37, i64 80
  store ptr %6, ptr %51, align 8, !tbaa !4
  %52 = getelementptr inbounds nuw i8, ptr %37, i64 88
  store ptr %7, ptr %52, align 8, !tbaa !4
  %53 = getelementptr inbounds nuw i8, ptr %37, i64 96
  store ptr %8, ptr %53, align 8, !tbaa !4
  %54 = getelementptr inbounds nuw i8, ptr %37, i64 104
  store ptr %9, ptr %54, align 8, !tbaa !4
  %55 = getelementptr inbounds nuw i8, ptr %37, i64 112
  store ptr %10, ptr %55, align 8, !tbaa !4
  tail call void @lean_inc_heartbeat() #6
  %56 = tail call noalias ptr @mi_malloc_small(i64 noundef 64) #6
  %57 = icmp eq ptr %56, null
  br i1 %57, label %58, label %l_Lean_Meta_IndPredBelow_mkCtorType_mkMotiveBinder.exit

58:                                               ; preds = %lean_alloc_closure.exit
  tail call void @lean_internal_panic_out_of_memory() #7
  unreachable

l_Lean_Meta_IndPredBelow_mkCtorType_mkMotiveBinder.exit: ; preds = %lean_alloc_closure.exit
  %59 = getelementptr inbounds nuw i8, ptr %56, i64 4
  store i32 1, ptr %56, align 4, !tbaa !12
  store i32 -184549312, ptr %59, align 4
  %60 = getelementptr inbounds nuw i8, ptr %56, i64 8
  store ptr @l_Lean_Meta_IndPredBelow_mkCtorType_mkMotiveBinder___lambda__1___boxed, ptr %60, align 8, !tbaa !4
  %61 = getelementptr inbounds nuw i8, ptr %56, i64 16
  store i16 12, ptr %61, align 8, !tbaa !15
  %62 = getelementptr inbounds nuw i8, ptr %56, i64 18
  store i16 5, ptr %62, align 2, !tbaa !15
  %63 = getelementptr inbounds nuw i8, ptr %56, i64 24
  store ptr %8, ptr %63, align 8, !tbaa !4
  %64 = getelementptr inbounds nuw i8, ptr %56, i64 32
  store ptr %11, ptr %64, align 8, !tbaa !4
  %65 = getelementptr inbounds nuw i8, ptr %56, i64 40
  store ptr %13, ptr %65, align 8, !tbaa !4
  %66 = getelementptr inbounds nuw i8, ptr %56, i64 48
  store ptr %0, ptr %66, align 8, !tbaa !4
  %67 = getelementptr inbounds nuw i8, ptr %56, i64 56
  store ptr %37, ptr %67, align 8, !tbaa !4
  %68 = tail call ptr @l_Lean_Meta_forallTelescopeReducing___at_Lean_Meta_getParamNames___spec__2___rarg(ptr noundef %12, ptr noundef nonnull %56, i8 noundef zeroext 0, ptr noundef %15, ptr noundef %16, ptr noundef %17, ptr noundef %18, ptr noundef %19) #6
  ret ptr %68
}